target datalayout = "e-m:e-p270:32:32-p271:32:32-p272:64:64-i64:64-i128:128-f80:128-n8:16:32:64-S128"
target triple = "x86_64-pc-linux-gnu"

%struct.zenityArgs = type { ptr, ptr, ptr, [28 x i8], i32, ptr, ptr, ptr, ptr, ptr }

; Function Attrs: nounwind uwtable
define internal void @free_zenity_args(ptr noundef %0) #0 {
  %2 = alloca ptr, align 8
  %3 = alloca i32, align 4
  store ptr %0, ptr %2, align 8
  %4 = load ptr, ptr %2, align 8
  %5 = getelementptr inbounds nuw %struct.zenityArgs, ptr %4, i32 0, i32 5
  %6 = load ptr, ptr %5, align 8
  %7 = icmp ne ptr %6, null
  br i1 %7, label %8, label %28

8:                                                ; preds = %1
  call void @llvm.lifetime.start.p0(i64 4, ptr %3) #6
  store i32 0, ptr %3, align 4
  br label %9

9:                                                ; preds = %24, %8
  %10 = load i32, ptr %3, align 4
  %11 = load ptr, ptr %2, align 8
  %12 = getelementptr inbounds nuw %struct.zenityArgs, ptr %11, i32 0, i32 4
  %13 = load i32, ptr %12, align 4
  %14 = icmp slt i32 %10, %13
  br i1 %14, label %16, label %15

15:                                               ; preds = %9
  call void @llvm.lifetime.end.p0(i64 4, ptr %3) #6
  br label %27

16:                                               ; preds = %9
  %17 = load ptr, ptr %2, align 8
  %18 = getelementptr inbounds nuw %struct.zenityArgs, ptr %17, i32 0, i32 5
  %19 = load ptr, ptr %18, align 8
  %20 = load i32, ptr %3, align 4
  %21 = sext i32 %20 to i64
  %22 = getelementptr inbounds ptr, ptr %19, i64 %21
  %23 = load ptr, ptr %22, align 8
  call void @SDL_free_REAL(ptr noundef %23)
  br label %24

24:                                               ; preds = %16
  %25 = load i32, ptr %3, align 4
  %26 = add nsw i32 %25, 1
  store i32 %26, ptr %3, align 4
  br label %9, !llvm.loop !6

27:                                               ; preds = %15
  br label %28

28:                                               ; preds = %27, %1
  %29 = load ptr, ptr %2, align 8
  %30 = getelementptr inbounds nuw %struct.zenityArgs, ptr %29, i32 0, i32 6
  %31 = load ptr, ptr %30, align 8
  call void @SDL_free_REAL(ptr noundef %31)
  %32 = load ptr, ptr %2, align 8
  %33 = getelementptr inbounds nuw %struct.zenityArgs, ptr %32, i32 0, i32 7
  %34 = load ptr, ptr %33, align 8
  call void @SDL_free_REAL(ptr noundef %34)
  %35 = load ptr, ptr %2, align 8
  %36 = getelementptr inbounds nuw %struct.zenityArgs, ptr %35, i32 0, i32 8
  %37 = load ptr, ptr %36, align 8
  call void @SDL_free_REAL(ptr noundef %37)
  %38 = load ptr, ptr %2, align 8
  %39 = getelementptr inbounds nuw %struct.zenityArgs, ptr %38, i32 0, i32 9
  %40 = load ptr, ptr %39, align 8
  call void @SDL_free_REAL(ptr noundef %40)
  %41 = load ptr, ptr %2, align 8
  %42 = getelementptr inbounds nuw %struct.zenityArgs, ptr %41, i32 0, i32 2
  %43 = load ptr, ptr %42, align 8
  call void @SDL_free_REAL(ptr noundef %43)
  %44 = load ptr, ptr %2, align 8
  call void @SDL_free_REAL(ptr noundef %44)
  ret void
}