; Function Attrs: nounwind uwtable
define internal fastcc void @free_zenity_args(ptr noundef %0) unnamed_addr #0 {
  %2 = getelementptr inbounds nuw i8, ptr %0, i64 56
  %3 = load ptr, ptr %2, align 8
  %.not = icmp eq ptr %3, null
  br i1 %.not, label %.loopexit, label %.preheader

.preheader:                                       ; preds = %1
  %4 = getelementptr inbounds nuw i8, ptr %0, i64 52
  %5 = load i32, ptr %4, align 4
  %6 = icmp sgt i32 %5, 0
  br i1 %6, label %.lr.ph, label %.loopexit

.lr.ph:                                           ; preds = %.preheader, %.lr.ph
  %indvars.iv = phi i64 [ %indvars.iv.next, %.lr.ph ], [ 0, %.preheader ]
  %7 = load ptr, ptr %2, align 8
  %8 = getelementptr inbounds nuw ptr, ptr %7, i64 %indvars.iv
  %9 = load ptr, ptr %8, align 8
  tail call void @SDL_free_REAL(ptr noundef %9) #7
  %indvars.iv.next = add nuw nsw i64 %indvars.iv, 1
  %10 = load i32, ptr %4, align 4
  %11 = sext i32 %10 to i64
  %12 = icmp slt i64 %indvars.iv.next, %11
  br i1 %12, label %.lr.ph, label %.loopexit, !llvm.loop !7

.loopexit:                                        ; preds = %.lr.ph, %.preheader, %1
  %13 = getelementptr inbounds nuw i8, ptr %0, i64 64
  %14 = load ptr, ptr %13, align 8
  tail call void @SDL_free_REAL(ptr noundef %14) #7
  %15 = getelementptr inbounds nuw i8, ptr %0, i64 72
  %16 = load ptr, ptr %15, align 8
  tail call void @SDL_free_REAL(ptr noundef %16) #7
  %17 = getelementptr inbounds nuw i8, ptr %0, i64 80
  %18 = load ptr, ptr %17, align 8
  tail call void @SDL_free_REAL(ptr noundef %18) #7
  %19 = getelementptr inbounds nuw i8, ptr %0, i64 88
  %20 = load ptr, ptr %19, align 8
  tail call void @SDL_free_REAL(ptr noundef %20) #7
  %21 = getelementptr inbounds nuw i8, ptr %0, i64 16
  %22 = load ptr, ptr %21, align 8
  tail call void @SDL_free_REAL(ptr noundef %22) #7
  tail call void @SDL_free_REAL(ptr noundef nonnull %0) #7
  ret void
}